target datalayout = "e-m:e-p270:32:32-p271:32:32-p272:64:64-i64:64-i128:128-f80:128-n8:16:32:64-S128"
target triple = "x86_64-pc-linux-gnu"

%class.NativeCallStack = type { [4 x ptr] }
%class.MallocSiteHashtableEntry = type { %class.MallocSite, i32, ptr }
%class.MallocSite = type { %class.AllocationSite.base, %class.MemoryCounter }
%class.AllocationSite.base = type <{ %class.NativeCallStack, i8 }>
%class.MemoryCounter = type { i64, i64, i64, i64 }
%class.AllocationSite = type <{ %class.NativeCallStack, i8, [7 x i8] }>
%"struct.Atomic::LoadImpl" = type { i8 }
%"struct.Atomic::PlatformLoad" = type { i8 }

@_ZN15MallocSiteTable6_tableE = hidden global ptr null, align 8
@.str = private unnamed_addr constant [30 x i8] c"Malloc allocation site table:\00", align 1
@.str.4 = private unnamed_addr constant [19 x i8] c"\09Total entries: %d\00", align 1
@.str.5 = private unnamed_addr constant [54 x i8] c"\09Empty entries (no outstanding mallocs): %d (%2.2f%%)\00", align 1
@.str.6 = private unnamed_addr constant [34 x i8] c"Bucket chain length distribution:\00", align 1
@.str.7 = private unnamed_addr constant [12 x i8] c"unused:  %d\00", align 1
@.str.8 = private unnamed_addr constant [12 x i8] c"longest: %d\00", align 1
@.str.9 = private unnamed_addr constant [12 x i8] c"median:  %d\00", align 1
@.str.10 = private unnamed_addr constant [31 x i8] c"Call stack depth distribution:\00", align 1
@.str.11 = private unnamed_addr constant [8 x i8] c"\09%d: %d\00", align 1

; Function Attrs: mustprogress nounwind uwtable
define linkonce_odr hidden noundef i64 @_ZNK6Atomic12PlatformLoadILm8EEclImEET_PVKS3_(ptr noundef nonnull align 1 dereferenceable(1) %0, ptr noundef %1) #1 comdat align 2 {
  %3 = alloca ptr, align 8
  %4 = alloca ptr, align 8
  store ptr %0, ptr %3, align 8
  store ptr %1, ptr %4, align 8
  %5 = load ptr, ptr %4, align 8
  %6 = load volatile i64, ptr %5, align 8
  ret i64 %6
}

; Function Attrs: mustprogress nounwind uwtable
define linkonce_odr hidden noundef i64 @_ZNK6Atomic8LoadImplImNS_12PlatformLoadILm8EEEvEclEPVKm(ptr noundef nonnull align 1 dereferenceable(1) %0, ptr noundef %1) #1 comdat align 2 {
  %3 = alloca ptr, align 8
  %4 = alloca ptr, align 8
  %5 = alloca %"struct.Atomic::PlatformLoad", align 1
  store ptr %0, ptr %3, align 8
  store ptr %1, ptr %4, align 8
  %6 = load ptr, ptr %4, align 8
  %7 = call noundef i64 @_ZNK6Atomic12PlatformLoadILm8EEclImEET_PVKS3_(ptr noundef nonnull align 1 dereferenceable(1) %5, ptr noundef %6)
  ret i64 %7
}

; Function Attrs: mustprogress nounwind uwtable
define linkonce_odr hidden noundef i64 @_ZN6Atomic4loadImEET_PVKS1_(ptr noundef %0) #1 comdat align 2 {
  %2 = alloca ptr, align 8
  %3 = alloca %"struct.Atomic::LoadImpl", align 1
  store ptr %0, ptr %2, align 8
  %4 = load ptr, ptr %2, align 8
  %5 = call noundef i64 @_ZNK6Atomic8LoadImplImNS_12PlatformLoadILm8EEEvEclEPVKm(ptr noundef nonnull align 1 dereferenceable(1) %3, ptr noundef %4)
  ret i64 %5
}

; Function Attrs: mustprogress nounwind uwtable
define linkonce_odr hidden noundef i64 @_ZNK13MemoryCounter4sizeEv(ptr noundef nonnull align 8 dereferenceable(32) %0) #1 comdat align 2 {
  %2 = alloca ptr, align 8
  store ptr %0, ptr %2, align 8
  %3 = load ptr, ptr %2, align 8
  %4 = getelementptr inbounds %class.MemoryCounter, ptr %3, i32 0, i32 1
  %5 = call noundef i64 @_ZN6Atomic4loadImEET_PVKS1_(ptr noundef %4)
  ret i64 %5
}

; Function Attrs: mustprogress nounwind uwtable
define linkonce_odr hidden noundef i64 @_ZNK10MallocSite4sizeEv(ptr noundef nonnull align 8 dereferenceable(72) %0) #1 comdat align 2 {
  %2 = alloca ptr, align 8
  store ptr %0, ptr %2, align 8
  %3 = load ptr, ptr %2, align 8
  %4 = getelementptr inbounds %class.MallocSite, ptr %3, i32 0, i32 1
  %5 = call noundef i64 @_ZNK13MemoryCounter4sizeEv(ptr noundef nonnull align 8 dereferenceable(32) %4)
  ret i64 %5
}

; Function Attrs: mustprogress nounwind uwtable
define linkonce_odr hidden noundef i32 @_Z4MIN2IiET_S0_S0_(i32 noundef %0, i32 noundef %1) #1 comdat {
  %3 = alloca i32, align 4
  %4 = alloca i32, align 4
  store i32 %0, ptr %3, align 4
  store i32 %1, ptr %4, align 4
  %5 = load i32, ptr %3, align 4
  %6 = load i32, ptr %4, align 4
  %7 = icmp slt i32 %5, %6
  br i1 %7, label %8, label %10

8:                                                ; preds = %2
  %9 = load i32, ptr %3, align 4
  br label %12

10:                                               ; preds = %2
  %11 = load i32, ptr %4, align 4
  br label %12

12:                                               ; preds = %10, %8
  %13 = phi i32 [ %9, %8 ], [ %11, %10 ]
  ret i32 %13
}

; Function Attrs: mustprogress nounwind uwtable
define linkonce_odr hidden noundef ptr @_ZNK24MallocSiteHashtableEntry4nextEv(ptr noundef nonnull align 8 dereferenceable(88) %0) #1 comdat align 2 {
  %2 = alloca ptr, align 8
  store ptr %0, ptr %2, align 8
  %3 = load ptr, ptr %2, align 8
  %4 = getelementptr inbounds %class.MallocSiteHashtableEntry, ptr %3, i32 0, i32 2
  %5 = load volatile ptr, ptr %4, align 8
  ret ptr %5
}

; Function Attrs: mustprogress nounwind uwtable
define linkonce_odr hidden noundef ptr @_ZNK14AllocationSite10call_stackEv(ptr noundef nonnull align 8 dereferenceable(33) %0) #1 comdat align 2 {
  %2 = alloca ptr, align 8
  store ptr %0, ptr %2, align 8
  %3 = load ptr, ptr %2, align 8
  %4 = getelementptr inbounds %class.AllocationSite, ptr %3, i32 0, i32 0
  ret ptr %4
}

; Function Attrs: mustprogress nounwind uwtable
define linkonce_odr hidden noundef ptr @_ZNK24MallocSiteHashtableEntry4peekEv(ptr noundef nonnull align 8 dereferenceable(88) %0) #1 comdat align 2 {
  %2 = alloca ptr, align 8
  store ptr %0, ptr %2, align 8
  %3 = load ptr, ptr %2, align 8
  %4 = getelementptr inbounds %class.MallocSiteHashtableEntry, ptr %3, i32 0, i32 0
  ret ptr %4
}

; Function Attrs: mustprogress nounwind uwtable
define linkonce_odr hidden noundef i64 @_ZNK24MallocSiteHashtableEntry4sizeEv(ptr noundef nonnull align 8 dereferenceable(88) %0) #1 comdat align 2 {
  %2 = alloca ptr, align 8
  store ptr %0, ptr %2, align 8
  %3 = load ptr, ptr %2, align 8
  %4 = getelementptr inbounds %class.MallocSiteHashtableEntry, ptr %3, i32 0, i32 0
  %5 = call noundef i64 @_ZNK10MallocSite4sizeEv(ptr noundef nonnull align 8 dereferenceable(72) %4)
  ret i64 %5
}

; Function Attrs: mustprogress nounwind uwtable
define hidden void @_ZN15MallocSiteTable23print_tuning_statisticsEP12outputStream(ptr noundef %0) #1 align 2 {
  %2 = alloca ptr, align 8
  %3 = alloca i32, align 4
  %4 = alloca i32, align 4
  %5 = alloca [5 x i32], align 16
  %6 = alloca [4099 x i16], align 16
  %7 = alloca i32, align 4
  %8 = alloca i32, align 4
  %9 = alloca i32, align 4
  %10 = alloca ptr, align 8
  %11 = alloca i32, align 4
  %12 = alloca i32, align 4
  store ptr %0, ptr %2, align 8
  store i32 0, ptr %3, align 4
  store i32 0, ptr %4, align 4
  call void @llvm.memset.p0.i64(ptr align 16 %5, i8 0, i64 20, i1 false)
  call void @llvm.memset.p0.i64(ptr align 16 %6, i8 0, i64 8198, i1 false)
  store i32 0, ptr %7, align 4
  store i32 0, ptr %8, align 4
  br label %13

13:                                               ; preds = %61, %1
  %14 = load i32, ptr %8, align 4
  %15 = icmp slt i32 %14, 4099
  br i1 %15, label %16, label %64

16:                                               ; preds = %13
  store i32 0, ptr %9, align 4
  %17 = load ptr, ptr @_ZN15MallocSiteTable6_tableE, align 8
  %18 = load i32, ptr %8, align 4
  %19 = sext i32 %18 to i64
  %20 = getelementptr inbounds ptr, ptr %17, i64 %19
  %21 = load ptr, ptr %20, align 8
  store ptr %21, ptr %10, align 8
  %22 = load ptr, ptr %10, align 8
  %23 = icmp eq ptr %22, null
  br i1 %23, label %24, label %27

24:                                               ; preds = %16
  %25 = load i32, ptr %7, align 4
  %26 = add nsw i32 %25, 1
  store i32 %26, ptr %7, align 4
  br label %27

27:                                               ; preds = %24, %16
  br label %28

28:                                               ; preds = %42, %27
  %29 = load ptr, ptr %10, align 8
  %30 = icmp ne ptr %29, null
  br i1 %30, label %31, label %54

31:                                               ; preds = %28
  %32 = load i32, ptr %3, align 4
  %33 = add nsw i32 %32, 1
  store i32 %33, ptr %3, align 4
  %34 = load i32, ptr %9, align 4
  %35 = add nsw i32 %34, 1
  store i32 %35, ptr %9, align 4
  %36 = load ptr, ptr %10, align 8
  %37 = call noundef i64 @_ZNK24MallocSiteHashtableEntry4sizeEv(ptr noundef nonnull align 8 dereferenceable(88) %36)
  %38 = icmp eq i64 %37, 0
  br i1 %38, label %39, label %42

39:                                               ; preds = %31
  %40 = load i32, ptr %4, align 4
  %41 = add nsw i32 %40, 1
  store i32 %41, ptr %4, align 4
  br label %42

42:                                               ; preds = %39, %31
  %43 = load ptr, ptr %10, align 8
  %44 = call noundef ptr @_ZNK24MallocSiteHashtableEntry4peekEv(ptr noundef nonnull align 8 dereferenceable(88) %43)
  %45 = call noundef ptr @_ZNK14AllocationSite10call_stackEv(ptr noundef nonnull align 8 dereferenceable(33) %44)
  %46 = call noundef i32 @_ZNK15NativeCallStack6framesEv(ptr noundef nonnull align 8 dereferenceable(32) %45)
  store i32 %46, ptr %11, align 4
  %47 = load i32, ptr %11, align 4
  %48 = sext i32 %47 to i64
  %49 = getelementptr inbounds [5 x i32], ptr %5, i64 0, i64 %48
  %50 = load i32, ptr %49, align 4
  %51 = add nsw i32 %50, 1
  store i32 %51, ptr %49, align 4
  %52 = load ptr, ptr %10, align 8
  %53 = call noundef ptr @_ZNK24MallocSiteHashtableEntry4nextEv(ptr noundef nonnull align 8 dereferenceable(88) %52)
  store ptr %53, ptr %10, align 8
  br label %28, !llvm.loop !13

54:                                               ; preds = %28
  %55 = load i32, ptr %9, align 4
  %56 = call noundef i32 @_Z4MIN2IiET_S0_S0_(i32 noundef %55, i32 noundef 65535)
  %57 = trunc i32 %56 to i16
  %58 = load i32, ptr %8, align 4
  %59 = sext i32 %58 to i64
  %60 = getelementptr inbounds [4099 x i16], ptr %6, i64 0, i64 %59
  store i16 %57, ptr %60, align 2
  br label %61

61:                                               ; preds = %54
  %62 = load i32, ptr %8, align 4
  %63 = add nsw i32 %62, 1
  store i32 %63, ptr %8, align 4
  br label %13, !llvm.loop !14

64:                                               ; preds = %13
  %65 = load ptr, ptr %2, align 8
  call void (ptr, ptr, ...) @_ZN12outputStream8print_crEPKcz(ptr noundef nonnull align 8 dereferenceable(56) %65, ptr noundef @.str)
  %66 = load ptr, ptr %2, align 8
  %67 = load i32, ptr %3, align 4
  call void (ptr, ptr, ...) @_ZN12outputStream8print_crEPKcz(ptr noundef nonnull align 8 dereferenceable(56) %66, ptr noundef @.str.4, i32 noundef %67)
  %68 = load ptr, ptr %2, align 8
  %69 = load i32, ptr %4, align 4
  %70 = load i32, ptr %4, align 4
  %71 = sitofp i32 %70 to float
  %72 = fmul float %71, 1.000000e+02
  %73 = load i32, ptr %3, align 4
  %74 = sitofp i32 %73 to float
  %75 = fdiv float %72, %74
  %76 = fpext float %75 to double
  call void (ptr, ptr, ...) @_ZN12outputStream8print_crEPKcz(ptr noundef nonnull align 8 dereferenceable(56) %68, ptr noundef @.str.5, i32 noundef %69, double noundef %76)
  %77 = load ptr, ptr %2, align 8
  call void @_ZN12outputStream2crEv(ptr noundef nonnull align 8 dereferenceable(56) %77)
  %78 = getelementptr inbounds [4099 x i16], ptr %6, i64 0, i64 0
  call void @qsort(ptr noundef %78, i64 noundef 4099, i64 noundef 2, ptr noundef @_ZL12qsort_helperPKvS0_)
  %79 = load ptr, ptr %2, align 8
  call void (ptr, ptr, ...) @_ZN12outputStream8print_crEPKcz(ptr noundef nonnull align 8 dereferenceable(56) %79, ptr noundef @.str.6)
  %80 = load ptr, ptr %2, align 8
  %81 = load i32, ptr %7, align 4
  call void (ptr, ptr, ...) @_ZN12outputStream8print_crEPKcz(ptr noundef nonnull align 8 dereferenceable(56) %80, ptr noundef @.str.7, i32 noundef %81)
  %82 = load ptr, ptr %2, align 8
  %83 = getelementptr inbounds [4099 x i16], ptr %6, i64 0, i64 4098
  %84 = load i16, ptr %83, align 4
  %85 = zext i16 %84 to i32
  call void (ptr, ptr, ...) @_ZN12outputStream8print_crEPKcz(ptr noundef nonnull align 8 dereferenceable(56) %82, ptr noundef @.str.8, i32 noundef %85)
  %86 = load ptr, ptr %2, align 8
  %87 = getelementptr inbounds [4099 x i16], ptr %6, i64 0, i64 2049
  %88 = load i16, ptr %87, align 2
  %89 = zext i16 %88 to i32
  call void (ptr, ptr, ...) @_ZN12outputStream8print_crEPKcz(ptr noundef nonnull align 8 dereferenceable(56) %86, ptr noundef @.str.9, i32 noundef %89)
  %90 = load ptr, ptr %2, align 8
  call void @_ZN12outputStream2crEv(ptr noundef nonnull align 8 dereferenceable(56) %90)
  %91 = load ptr, ptr %2, align 8
  call void (ptr, ptr, ...) @_ZN12outputStream8print_crEPKcz(ptr noundef nonnull align 8 dereferenceable(56) %91, ptr noundef @.str.10)
  store i32 0, ptr %12, align 4
  br label %92

92:                                               ; preds = %102, %64
  %93 = load i32, ptr %12, align 4
  %94 = icmp sle i32 %93, 4
  br i1 %94, label %95, label %105

95:                                               ; preds = %92
  %96 = load ptr, ptr %2, align 8
  %97 = load i32, ptr %12, align 4
  %98 = load i32, ptr %12, align 4
  %99 = sext i32 %98 to i64
  %100 = getelementptr inbounds [5 x i32], ptr %5, i64 0, i64 %99
  %101 = load i32, ptr %100, align 4
  call void (ptr, ptr, ...) @_ZN12outputStream8print_crEPKcz(ptr noundef nonnull align 8 dereferenceable(56) %96, ptr noundef @.str.11, i32 noundef %97, i32 noundef %101)
  br label %102

102:                                              ; preds = %95
  %103 = load i32, ptr %12, align 4
  %104 = add nsw i32 %103, 1
  store i32 %104, ptr %12, align 4
  br label %92, !llvm.loop !15

105:                                              ; preds = %92
  %106 = load ptr, ptr %2, align 8
  call void @_ZN12outputStream2crEv(ptr noundef nonnull align 8 dereferenceable(56) %106)
  ret void
}