; Function Attrs: mustprogress nounwind uwtable
define hidden void @_ZN15MallocSiteTable23print_tuning_statisticsEP12outputStream(ptr noundef %0) local_unnamed_addr #0 align 2 {
  %2 = alloca [5 x i32], align 16
  %3 = alloca [4099 x i16], align 16
  call void @llvm.memset.p0.i64(ptr noundef nonnull align 16 dereferenceable(20) %2, i8 0, i64 20, i1 false)
  call void @llvm.memset.p0.i64(ptr noundef nonnull align 16 dereferenceable(8198) %3, i8 0, i64 8198, i1 false)
  br label %4

4:                                                ; preds = %1, %._crit_edge
  %indvars.iv = phi i64 [ 0, %1 ], [ %indvars.iv.next, %._crit_edge ]
  %.03554 = phi i32 [ 0, %1 ], [ %.1.lcssa, %._crit_edge ]
  %.03952 = phi i32 [ 0, %1 ], [ %spec.select, %._crit_edge ]
  %.04151 = phi i32 [ 0, %1 ], [ %.142.lcssa, %._crit_edge ]
  %5 = load ptr, ptr @_ZN15MallocSiteTable6_tableE, align 8
  %6 = getelementptr inbounds ptr, ptr %5, i64 %indvars.iv
  %7 = load ptr, ptr %6, align 8
  %8 = icmp eq ptr %7, null
  %9 = zext i1 %8 to i32
  %spec.select = add nuw nsw i32 %.03952, %9
  br i1 %8, label %._crit_edge, label %.lr.ph

.lr.ph:                                           ; preds = %4, %.lr.ph
  %.148 = phi i32 [ %10, %.lr.ph ], [ %.03554, %4 ]
  %.03647 = phi ptr [ %22, %.lr.ph ], [ %7, %4 ]
  %.03746 = phi i32 [ %11, %.lr.ph ], [ 0, %4 ]
  %.14245 = phi i32 [ %spec.select43, %.lr.ph ], [ %.04151, %4 ]
  %10 = add nsw i32 %.148, 1
  %11 = add nuw nsw i32 %.03746, 1
  %12 = getelementptr inbounds i8, ptr %.03647, i64 48
  %13 = load volatile i64, ptr %12, align 8
  %14 = icmp eq i64 %13, 0
  %15 = zext i1 %14 to i32
  %spec.select43 = add nsw i32 %.14245, %15
  %16 = tail call noundef i32 @_ZNK15NativeCallStack6framesEv(ptr noundef nonnull align 8 dereferenceable(32) %.03647) #14
  %17 = sext i32 %16 to i64
  %18 = getelementptr inbounds [5 x i32], ptr %2, i64 0, i64 %17
  %19 = load i32, ptr %18, align 4
  %20 = add nsw i32 %19, 1
  store i32 %20, ptr %18, align 4
  %21 = getelementptr inbounds i8, ptr %.03647, i64 80
  %22 = load volatile ptr, ptr %21, align 8
  %.not = icmp eq ptr %22, null
  br i1 %.not, label %._crit_edge, label %.lr.ph, !llvm.loop !15

._crit_edge:                                      ; preds = %.lr.ph, %4
  %.142.lcssa = phi i32 [ %.04151, %4 ], [ %spec.select43, %.lr.ph ]
  %.037.lcssa = phi i32 [ 0, %4 ], [ %11, %.lr.ph ]
  %.1.lcssa = phi i32 [ %.03554, %4 ], [ %10, %.lr.ph ]
  %23 = tail call noundef i32 @llvm.smin.i32(i32 %.037.lcssa, i32 65535)
  %24 = trunc nuw i32 %23 to i16
  %25 = getelementptr inbounds [4099 x i16], ptr %3, i64 0, i64 %indvars.iv
  store i16 %24, ptr %25, align 2
  %indvars.iv.next = add nuw nsw i64 %indvars.iv, 1
  %exitcond.not = icmp eq i64 %indvars.iv.next, 4099
  br i1 %exitcond.not, label %26, label %4, !llvm.loop !16

26:                                               ; preds = %._crit_edge
  tail call void (ptr, ptr, ...) @_ZN12outputStream8print_crEPKcz(ptr noundef nonnull align 8 dereferenceable(56) %0, ptr noundef nonnull @.str) #14
  tail call void (ptr, ptr, ...) @_ZN12outputStream8print_crEPKcz(ptr noundef nonnull align 8 dereferenceable(56) %0, ptr noundef nonnull @.str.4, i32 noundef %.1.lcssa) #14
  %27 = sitofp i32 %.142.lcssa to float
  %28 = fmul float %27, 1.000000e+02
  %29 = sitofp i32 %.1.lcssa to float
  %30 = fdiv float %28, %29
  %31 = fpext float %30 to double
  tail call void (ptr, ptr, ...) @_ZN12outputStream8print_crEPKcz(ptr noundef nonnull align 8 dereferenceable(56) %0, ptr noundef nonnull @.str.5, i32 noundef %.142.lcssa, double noundef %31) #14
  tail call void @_ZN12outputStream2crEv(ptr noundef nonnull align 8 dereferenceable(56) %0) #14
  call void @qsort(ptr noundef nonnull %3, i64 noundef 4099, i64 noundef 2, ptr noundef nonnull @_ZL12qsort_helperPKvS0_) #14
  call void (ptr, ptr, ...) @_ZN12outputStream8print_crEPKcz(ptr noundef nonnull align 8 dereferenceable(56) %0, ptr noundef nonnull @.str.6) #14
  call void (ptr, ptr, ...) @_ZN12outputStream8print_crEPKcz(ptr noundef nonnull align 8 dereferenceable(56) %0, ptr noundef nonnull @.str.7, i32 noundef %spec.select) #14
  %32 = getelementptr inbounds i8, ptr %3, i64 8196
  %33 = load i16, ptr %32, align 4
  %34 = zext i16 %33 to i32
  call void (ptr, ptr, ...) @_ZN12outputStream8print_crEPKcz(ptr noundef nonnull align 8 dereferenceable(56) %0, ptr noundef nonnull @.str.8, i32 noundef %34) #14
  %35 = getelementptr inbounds i8, ptr %3, i64 4098
  %36 = load i16, ptr %35, align 2
  %37 = zext i16 %36 to i32
  call void (ptr, ptr, ...) @_ZN12outputStream8print_crEPKcz(ptr noundef nonnull align 8 dereferenceable(56) %0, ptr noundef nonnull @.str.9, i32 noundef %37) #14
  call void @_ZN12outputStream2crEv(ptr noundef nonnull align 8 dereferenceable(56) %0) #14
  call void (ptr, ptr, ...) @_ZN12outputStream8print_crEPKcz(ptr noundef nonnull align 8 dereferenceable(56) %0, ptr noundef nonnull @.str.10) #14
  br label %38

38:                                               ; preds = %26, %38
  %indvars.iv58 = phi i64 [ 0, %26 ], [ %indvars.iv.next59, %38 ]
  %39 = getelementptr inbounds [5 x i32], ptr %2, i64 0, i64 %indvars.iv58
  %40 = load i32, ptr %39, align 4
  %41 = trunc nuw nsw i64 %indvars.iv58 to i32
  call void (ptr, ptr, ...) @_ZN12outputStream8print_crEPKcz(ptr noundef nonnull align 8 dereferenceable(56) %0, ptr noundef nonnull @.str.11, i32 noundef %41, i32 noundef %40) #14
  %indvars.iv.next59 = add nuw nsw i64 %indvars.iv58, 1
  %exitcond61.not = icmp eq i64 %indvars.iv.next59, 5
  br i1 %exitcond61.not, label %42, label %38, !llvm.loop !17

42:                                               ; preds = %38
  call void @_ZN12outputStream2crEv(ptr noundef nonnull align 8 dereferenceable(56) %0) #14
  ret void
}